; Function Attrs: mustprogress uwtable
define void @_ZN3nix38ValuePrintingTests_ansiColorsList_Test8TestBodyEv(ptr noundef nonnull align 8 dereferenceable(1272) %0) unnamed_addr #4 align 2 {
  %2 = alloca %"struct.nix::Value", align 8
  %3 = alloca %"struct.nix::Value", align 8
  %4 = alloca %"struct.nix::Value", align 8
  %5 = alloca %"struct.nix::PrintOptions", align 8
  %6 = getelementptr inbounds i8, ptr %2, i64 8
  %7 = getelementptr inbounds i8, ptr %2, i64 16
  store i64 0, ptr %7, align 8
  store i32 1, ptr %2, align 8
  store i64 1, ptr %6, align 8
  %8 = getelementptr inbounds i8, ptr %3, i64 8
  %9 = getelementptr inbounds i8, ptr %3, i64 16
  store i64 0, ptr %9, align 8
  store i32 1, ptr %3, align 8
  store i64 2, ptr %8, align 8
  %10 = getelementptr inbounds i8, ptr %0, i64 24
  call void @_ZN3nix9EvalState6mkListERNS_5ValueEm(ptr noundef nonnull align 8 dereferenceable(1248) %10, ptr noundef nonnull align 8 dereferenceable(24) %4, i64 noundef 5)
  %11 = getelementptr inbounds i8, ptr %4, i64 8
  %12 = getelementptr inbounds i8, ptr %4, i64 16
  %13 = load ptr, ptr %12, align 8
  store ptr %2, ptr %13, align 8
  %14 = load ptr, ptr %12, align 8
  %15 = getelementptr inbounds i8, ptr %14, i64 8
  store ptr %3, ptr %15, align 8
  store i64 3, ptr %11, align 8
  store <4 x i8> <i8 1, i8 0, i8 0, i8 1>, ptr %5, align 8
  %16 = getelementptr inbounds i8, ptr %5, i64 8
  %17 = getelementptr inbounds i8, ptr %5, i64 40
  call void @llvm.memset.p0.i64(ptr noundef nonnull align 8 dereferenceable(32) %16, i8 -1, i64 32, i1 false)
  store i64 0, ptr %17, align 8
  call void @_ZN3nix18ValuePrintingTests4testIJNS_12PrintOptionsEEEEvNS_5ValueESt17basic_string_viewIcSt11char_traitsIcEEDpT_(ptr noundef nonnull align 8 dereferenceable(1272) %0, ptr noundef nonnull byval(%"struct.nix::Value") align 8 %4, i64 52, ptr nonnull @.str.130, ptr noundef nonnull byval(%"struct.nix::PrintOptions") align 8 %5)
  ret void
}